LIBRARY nvtt.dll
EXPORTS
??0CompressionOptions@nvtt@@QEAA@XZ
??0Compressor@nvtt@@QEAA@XZ
??0InputOptions@nvtt@@QEAA@XZ
??0OutputOptions@nvtt@@QEAA@XZ
??1CompressionOptions@nvtt@@QEAA@XZ
??1Compressor@nvtt@@QEAA@XZ
??1InputOptions@nvtt@@QEAA@XZ
??1OutputOptions@nvtt@@QEAA@XZ
?enableCudaAcceleration@Compressor@nvtt@@QEAAX_N@Z
?errorString@nvtt@@YAPEBDW4Error@1@@Z
?estimateSize@Compressor@nvtt@@QEBAHAEBUInputOptions@2@AEBUCompressionOptions@2@@Z
?isCudaAccelerationEnabled@Compressor@nvtt@@QEBA_NXZ
?process@Compressor@nvtt@@QEBA_NAEBUInputOptions@2@AEBUCompressionOptions@2@AEBUOutputOptions@2@@Z
?reset@CompressionOptions@nvtt@@QEAAXXZ
?reset@InputOptions@nvtt@@QEAAXXZ
?reset@OutputOptions@nvtt@@QEAAXXZ
?resetTextureLayout@InputOptions@nvtt@@QEAAXXZ
?setAlphaMode@InputOptions@nvtt@@QEAAXW4AlphaMode@2@@Z
?setColorTransform@InputOptions@nvtt@@QEAAXW4ColorTransform@2@@Z
?setColorWeights@CompressionOptions@nvtt@@QEAAXMMMM@Z
?setConvertToNormalMap@InputOptions@nvtt@@QEAAX_N@Z
?setErrorHandler@OutputOptions@nvtt@@QEAAXPEAUErrorHandler@2@@Z
?setExternalCompressor@CompressionOptions@nvtt@@QEAAXPEBD@Z
?setFileName@OutputOptions@nvtt@@QEAAXPEBD@Z
?setFormat@CompressionOptions@nvtt@@QEAAXW4Format@2@@Z
?setFormat@InputOptions@nvtt@@QEAAXW4InputFormat@2@@Z
?setGamma@InputOptions@nvtt@@QEAAXMM@Z
?setHeightEvaluation@InputOptions@nvtt@@QEAAXMMMM@Z
?setKaiserParameters@InputOptions@nvtt@@QEAAXMMM@Z
?setLinearTransform@InputOptions@nvtt@@QEAAXHMMMM@Z
?setMaxExtents@InputOptions@nvtt@@QEAAXH@Z
?setMipmapData@InputOptions@nvtt@@QEAA_NPEBXHHHHH@Z
?setMipmapFilter@InputOptions@nvtt@@QEAAXW4MipmapFilter@2@@Z
?setMipmapGeneration@InputOptions@nvtt@@QEAAX_NH@Z
?setNormalFilter@InputOptions@nvtt@@QEAAXMMMM@Z
?setNormalMap@InputOptions@nvtt@@QEAAX_N@Z
?setNormalizeMipmaps@InputOptions@nvtt@@QEAAX_N@Z
?setOutputHandler@OutputOptions@nvtt@@QEAAXPEAUOutputHandler@2@@Z
?setOutputHeader@OutputOptions@nvtt@@QEAAX_N@Z
?setPixelFormat@CompressionOptions@nvtt@@QEAAXIIIII@Z
?setQuality@CompressionOptions@nvtt@@QEAAXW4Quality@2@@Z
?setQuantization@CompressionOptions@nvtt@@QEAAX_N00H@Z
?setRoundMode@InputOptions@nvtt@@QEAAXW4RoundMode@2@@Z
?setTextureLayout@InputOptions@nvtt@@QEAAXW4TextureType@2@HHH@Z
?setWrapMode@InputOptions@nvtt@@QEAAXW4WrapMode@2@@Z
?version@nvtt@@YAIXZ
nvttCompress
nvttCreateCompressionOptions
nvttCreateInputOptions
nvttCreateOutputOptions
nvttDestroyCompressionOptions
nvttDestroyInputOptions
nvttDestroyOutputOptions
nvttErrorString
nvttEstimateSize
nvttResetInputOptionsTextureLayout
nvttSetCompressionOptionsColorWeights
nvttSetCompressionOptionsFormat
nvttSetCompressionOptionsPixelFormat
nvttSetCompressionOptionsQuality
nvttSetCompressionOptionsQuantization
nvttSetInputOptionsAlphaMode
nvttSetInputOptionsColorTransform
nvttSetInputOptionsConvertToNormalMap
nvttSetInputOptionsFormat
nvttSetInputOptionsGamma
nvttSetInputOptionsHeightEvaluation
nvttSetInputOptionsKaiserParameters
nvttSetInputOptionsMaxExtents
nvttSetInputOptionsMipmapData
nvttSetInputOptionsMipmapFilter
nvttSetInputOptionsMipmapGeneration
nvttSetInputOptionsNormalFilter
nvttSetInputOptionsNormalMap
nvttSetInputOptionsNormalizeMipmaps
nvttSetInputOptionsRoundMode
nvttSetInputOptionsTextureLayout
nvttSetInputOptionsWrapMode
nvttSetOutputOptionsFileName
nvttSetOutputOptionsOutputHeader
nvttVersion
